target datalayout = "e-m:e-p270:32:32-p271:32:32-p272:64:64-i64:64-i128:128-f80:128-n8:16:32:64-S128"
target triple = "x86_64-pc-linux-gnu"

%struct.lxb_html_tree = type { ptr, ptr, ptr, ptr, ptr, ptr, ptr, %struct.lxb_html_tree_pending_table_t, ptr, i8, i8, i8, i8, i8, i8, ptr, ptr, ptr, i32, i64 }
%struct.lxb_html_tree_pending_table_t = type { ptr, i8 }
%struct.lxb_html_token_t = type { ptr, ptr, i64, i64, ptr, ptr, ptr, ptr, ptr, i64, i64, i32 }

; Function Attrs: inlinehint nounwind uwtable
define internal ptr @lxb_html_tree_insert_html_element(ptr noundef %0, ptr noundef %1) #3 {
  %3 = alloca ptr, align 8
  %4 = alloca ptr, align 8
  store ptr %0, ptr %3, align 8, !tbaa !4
  store ptr %1, ptr %4, align 8, !tbaa !9
  %5 = load ptr, ptr %3, align 8, !tbaa !4
  %6 = load ptr, ptr %4, align 8, !tbaa !9
  %7 = call ptr @lxb_html_tree_insert_foreign_element(ptr noundef %5, ptr noundef %6, i64 noundef 2)
  ret ptr %7
}

; Function Attrs: inlinehint nounwind uwtable
define internal zeroext i1 @lxb_html_tree_insertion_mode_in_body_p_closed(ptr noundef %0, ptr noundef %1) #3 {
  %3 = alloca i1, align 1
  %4 = alloca ptr, align 8
  %5 = alloca ptr, align 8
  %6 = alloca ptr, align 8
  %7 = alloca %struct.lxb_html_token_t, align 8
  %8 = alloca ptr, align 8
  %9 = alloca i32, align 4
  store ptr %0, ptr %4, align 8, !tbaa !4
  store ptr %1, ptr %5, align 8, !tbaa !9
  call void @llvm.lifetime.start.p0(i64 8, ptr %6) #5
  %10 = load ptr, ptr %4, align 8, !tbaa !4
  %11 = call ptr @lxb_html_tree_element_in_scope(ptr noundef %10, i64 noundef 145, i64 noundef 2, i32 noundef 32)
  store ptr %11, ptr %6, align 8, !tbaa !37
  %12 = load ptr, ptr %6, align 8, !tbaa !37
  %13 = icmp eq ptr %12, null
  br i1 %13, label %14, label %31

14:                                               ; preds = %2
  call void @llvm.lifetime.start.p0(i64 96, ptr %7) #5
  call void @llvm.memset.p0.i64(ptr align 8 %7, i8 0, i64 96, i1 false)
  call void @llvm.lifetime.start.p0(i64 8, ptr %8) #5
  %15 = load ptr, ptr %4, align 8, !tbaa !4
  %16 = load ptr, ptr %5, align 8, !tbaa !9
  call void @lxb_html_tree_parse_error(ptr noundef %15, ptr noundef %16, i32 noundef 1)
  %17 = getelementptr inbounds nuw %struct.lxb_html_token_t, ptr %7, i32 0, i32 10
  store i64 145, ptr %17, align 8, !tbaa !21
  %18 = load ptr, ptr %4, align 8, !tbaa !4
  %19 = call ptr @lxb_html_tree_insert_html_element(ptr noundef %18, ptr noundef %7)
  store ptr %19, ptr %8, align 8, !tbaa !40
  %20 = load ptr, ptr %8, align 8, !tbaa !40
  %21 = icmp eq ptr %20, null
  br i1 %21, label %22, label %27

22:                                               ; preds = %14
  %23 = load ptr, ptr %4, align 8, !tbaa !4
  %24 = getelementptr inbounds nuw %struct.lxb_html_tree, ptr %23, i32 0, i32 18
  store i32 2, ptr %24, align 8, !tbaa !25
  %25 = load ptr, ptr %4, align 8, !tbaa !4
  %26 = call zeroext i1 @lxb_html_tree_process_abort(ptr noundef %25)
  store i1 %26, ptr %3, align 1
  store i32 1, ptr %9, align 4
  br label %28

27:                                               ; preds = %14
  store i32 0, ptr %9, align 4
  br label %28

28:                                               ; preds = %27, %22
  call void @llvm.lifetime.end.p0(i64 8, ptr %8) #5
  call void @llvm.lifetime.end.p0(i64 96, ptr %7) #5
  %29 = load i32, ptr %9, align 4
  switch i32 %29, label %34 [
    i32 0, label %30
  ]

30:                                               ; preds = %28
  br label %31

31:                                               ; preds = %30, %2
  %32 = load ptr, ptr %4, align 8, !tbaa !4
  %33 = load ptr, ptr %5, align 8, !tbaa !9
  call void @lxb_html_tree_close_p_element(ptr noundef %32, ptr noundef %33)
  store i1 true, ptr %3, align 1
  store i32 1, ptr %9, align 4
  br label %34

34:                                               ; preds = %31, %28
  call void @llvm.lifetime.end.p0(i64 8, ptr %6) #5
  %35 = load i1, ptr %3, align 1
  ret i1 %35
}