; Function Attrs: inlinehint nounwind uwtable
define internal fastcc zeroext i1 @lxb_html_tree_insertion_mode_in_body_p_closed(ptr noundef %0, ptr noundef %1) unnamed_addr #3 {
  %3 = alloca %struct.lxb_html_token_t, align 8
  %4 = tail call ptr @lxb_html_tree_element_in_scope(ptr noundef %0, i64 noundef 145, i64 noundef 2, i32 noundef 32) #6
  %5 = icmp eq ptr %4, null
  br i1 %5, label %6, label %12

6:                                                ; preds = %2
  call void @llvm.lifetime.start.p0(i64 96, ptr nonnull %3) #6
  call void @llvm.memset.p0.i64(ptr noundef nonnull align 8 dereferenceable(96) %3, i8 0, i64 96, i1 false)
  tail call void @lxb_html_tree_parse_error(ptr noundef %0, ptr noundef %1, i32 noundef 1) #6
  %7 = getelementptr inbounds nuw i8, ptr %3, i64 80
  store i64 145, ptr %7, align 8, !tbaa !18
  %8 = call ptr @lxb_html_tree_insert_foreign_element(ptr noundef %0, ptr noundef nonnull %3, i64 noundef 2) #6
  %.not = icmp eq ptr %8, null
  br i1 %.not, label %.thread, label %11

.thread:                                          ; preds = %6
  %9 = getelementptr inbounds nuw i8, ptr %0, i64 112
  store i32 2, ptr %9, align 8, !tbaa !22
  %10 = call zeroext i1 @lxb_html_tree_process_abort(ptr noundef %0) #6
  call void @llvm.lifetime.end.p0(i64 96, ptr nonnull %3) #6
  br label %13

11:                                               ; preds = %6
  call void @llvm.lifetime.end.p0(i64 96, ptr nonnull %3) #6
  br label %12

12:                                               ; preds = %11, %2
  call void @lxb_html_tree_close_p_element(ptr noundef %0, ptr noundef %1) #6
  br label %13

13:                                               ; preds = %.thread, %12
  %.1 = phi i1 [ true, %12 ], [ %10, %.thread ]
  ret i1 %.1
}